target datalayout = "e-m:e-p270:32:32-p271:32:32-p272:64:64-i64:64-i128:128-f80:128-n8:16:32:64-S128"
target triple = "x86_64-pc-linux-gnu"

%struct.nghttp2_session = type { %struct.nghttp2_map, %struct.nghttp2_outbound_queue, %struct.nghttp2_outbound_queue, %struct.nghttp2_outbound_queue, [8 x %struct.anon], %struct.nghttp2_active_outbound_item, %struct.nghttp2_inbound_frame, %struct.nghttp2_hd_deflater, %struct.nghttp2_hd_inflater, %struct.nghttp2_session_callbacks, %struct.nghttp2_mem, ptr, ptr, %struct.nghttp2_ratelim, i64, i64, i64, i64, i64, i64, i64, i64, i64, i64, i64, i64, i64, i64, i32, i32, i32, i32, i32, i32, i32, i32, i32, i32, i32, i32, i8, %struct.nghttp2_settings_storage, %struct.nghttp2_settings_storage, i32, i32, i32, i8, i8, i8, i8, i8, i8, [32 x i8] }
%struct.nghttp2_map = type { ptr, ptr, i64, i64 }
%struct.nghttp2_outbound_queue = type { ptr, ptr, i64 }
%struct.anon = type { %struct.nghttp2_pq }
%struct.nghttp2_pq = type { ptr, ptr, i64, i64, ptr }
%struct.nghttp2_active_outbound_item = type { ptr, %struct.nghttp2_bufs, i32 }
%struct.nghttp2_bufs = type { ptr, ptr, ptr, i64, i64, i64, i64, i64 }
%struct.nghttp2_inbound_frame = type { %union.nghttp2_frame, %union.nghttp2_ext_frame_payload, ptr, %struct.nghttp2_buf, %struct.nghttp2_buf, ptr, i64, i64, i64, i64, i32, [32 x i8] }
%union.nghttp2_frame = type { %struct.nghttp2_headers }
%struct.nghttp2_headers = type { %struct.nghttp2_frame_hd, i64, %struct.nghttp2_priority_spec, ptr, i64, i32 }
%struct.nghttp2_frame_hd = type { i64, i32, i8, i8, i8 }
%struct.nghttp2_priority_spec = type { i32, i32, i8 }
%union.nghttp2_ext_frame_payload = type { %struct.nghttp2_ext_altsvc }
%struct.nghttp2_ext_altsvc = type { ptr, i64, ptr, i64 }
%struct.nghttp2_buf = type { ptr, ptr, ptr, ptr, ptr }
%struct.nghttp2_hd_deflater = type { %struct.nghttp2_hd_context, %struct.nghttp2_hd_map, i64, i64, i8 }
%struct.nghttp2_hd_context = type { %struct.nghttp2_hd_ringbuf, ptr, i64, i64, i32, i8 }
%struct.nghttp2_hd_ringbuf = type { ptr, i64, i64, i64 }
%struct.nghttp2_hd_map = type { [128 x ptr] }
%struct.nghttp2_hd_inflater = type { %struct.nghttp2_hd_context, %struct.nghttp2_hd_huff_decode_context, %struct.nghttp2_buf, %struct.nghttp2_buf, ptr, ptr, ptr, ptr, i64, i64, i64, i64, i64, i32, i32, i8, i8, i8 }
%struct.nghttp2_hd_huff_decode_context = type { i16 }
%struct.nghttp2_session_callbacks = type { ptr, ptr, ptr, ptr, ptr, ptr, ptr, ptr, ptr, ptr, ptr, ptr, ptr, ptr, ptr, ptr, ptr, ptr, ptr, ptr, ptr, ptr, ptr, ptr, ptr, ptr, ptr, ptr }
%struct.nghttp2_mem = type { ptr, ptr, ptr, ptr, ptr }
%struct.nghttp2_ratelim = type { i64, i64, i64, i64 }
%struct.nghttp2_settings_storage = type { i32, i32, i32, i32, i32, i32, i32, i32 }
%struct.nghttp2_data_provider_wrap = type { i32, %union.anon }
%union.anon = type { %struct.anon.0 }
%struct.anon.0 = type { %union.nghttp2_data_source, ptr }
%union.nghttp2_data_source = type { ptr }

; Function Attrs: nounwind uwtable
define internal zeroext i8 @set_request_flags(ptr noundef %0) #0 {
  %2 = alloca ptr, align 8
  %3 = alloca i8, align 1
  store ptr %0, ptr %2, align 8, !tbaa !14
  call void @llvm.lifetime.start.p0(i64 1, ptr %3) #7
  store i8 0, ptr %3, align 1, !tbaa !13
  %4 = load ptr, ptr %2, align 8, !tbaa !14
  %5 = icmp eq ptr %4, null
  br i1 %5, label %12, label %6

6:                                                ; preds = %1
  %7 = load ptr, ptr %2, align 8, !tbaa !14
  %8 = getelementptr inbounds nuw %struct.nghttp2_data_provider_wrap, ptr %7, i32 0, i32 1
  %9 = getelementptr inbounds nuw %struct.anon.0, ptr %8, i32 0, i32 1
  %10 = load ptr, ptr %9, align 8, !tbaa !13
  %11 = icmp eq ptr %10, null
  br i1 %11, label %12, label %17

12:                                               ; preds = %6, %1
  %13 = load i8, ptr %3, align 1, !tbaa !13
  %14 = zext i8 %13 to i32
  %15 = or i32 %14, 1
  %16 = trunc i32 %15 to i8
  store i8 %16, ptr %3, align 1, !tbaa !13
  br label %17

17:                                               ; preds = %12, %6
  %18 = load i8, ptr %3, align 1, !tbaa !13
  call void @llvm.lifetime.end.p0(i64 1, ptr %3) #7
  ret i8 %18
}

; Function Attrs: nounwind uwtable
define internal i32 @submit_request_shared(ptr noundef %0, ptr noundef %1, i64 noundef %2, ptr noundef %3, ptr noundef %4) #0 {
  %6 = alloca i32, align 4
  %7 = alloca ptr, align 8
  %8 = alloca ptr, align 8
  %9 = alloca i64, align 8
  %10 = alloca ptr, align 8
  %11 = alloca ptr, align 8
  %12 = alloca i8, align 1
  %13 = alloca i32, align 4
  store ptr %0, ptr %7, align 8, !tbaa !3
  store ptr %1, ptr %8, align 8, !tbaa !10
  store i64 %2, ptr %9, align 8, !tbaa !11
  store ptr %3, ptr %10, align 8, !tbaa !14
  store ptr %4, ptr %11, align 8, !tbaa !10
  call void @llvm.lifetime.start.p0(i64 1, ptr %12) #7
  %14 = load ptr, ptr %7, align 8, !tbaa !3
  %15 = getelementptr inbounds nuw %struct.nghttp2_session, ptr %14, i32 0, i32 49
  %16 = load i8, ptr %15, align 1, !tbaa !16
  %17 = icmp ne i8 %16, 0
  br i1 %17, label %18, label %19

18:                                               ; preds = %5
  store i32 -505, ptr %6, align 4
  store i32 1, ptr %13, align 4
  br label %29

19:                                               ; preds = %5
  %20 = load ptr, ptr %10, align 8, !tbaa !14
  %21 = call zeroext i8 @set_request_flags(ptr noundef %20)
  store i8 %21, ptr %12, align 1, !tbaa !13
  %22 = load ptr, ptr %7, align 8, !tbaa !3
  %23 = load i8, ptr %12, align 1, !tbaa !13
  %24 = load ptr, ptr %8, align 8, !tbaa !10
  %25 = load i64, ptr %9, align 8, !tbaa !11
  %26 = load ptr, ptr %10, align 8, !tbaa !14
  %27 = load ptr, ptr %11, align 8, !tbaa !10
  %28 = call i32 @submit_headers_shared_nva(ptr noundef %22, i8 noundef zeroext %23, i32 noundef -1, ptr noundef %24, i64 noundef %25, ptr noundef %26, ptr noundef %27)
  store i32 %28, ptr %6, align 4
  store i32 1, ptr %13, align 4
  br label %29

29:                                               ; preds = %19, %18
  call void @llvm.lifetime.end.p0(i64 1, ptr %12) #7
  %30 = load i32, ptr %6, align 4
  ret i32 %30
}

; Function Attrs: nounwind uwtable
define i32 @nghttp2_submit_request2(ptr noundef %0, ptr noundef %1, ptr noundef %2, i64 noundef %3, ptr noundef %4, ptr noundef %5) #0 {
  %7 = alloca ptr, align 8
  %8 = alloca ptr, align 8
  %9 = alloca ptr, align 8
  %10 = alloca i64, align 8
  %11 = alloca ptr, align 8
  %12 = alloca ptr, align 8
  %13 = alloca %struct.nghttp2_data_provider_wrap, align 8
  store ptr %0, ptr %7, align 8, !tbaa !3
  store ptr %1, ptr %8, align 8, !tbaa !10
  store ptr %2, ptr %9, align 8, !tbaa !10
  store i64 %3, ptr %10, align 8, !tbaa !11
  store ptr %4, ptr %11, align 8, !tbaa !10
  store ptr %5, ptr %12, align 8, !tbaa !10
  call void @llvm.lifetime.start.p0(i64 24, ptr %13) #7
  %14 = load ptr, ptr %7, align 8, !tbaa !3
  %15 = load ptr, ptr %9, align 8, !tbaa !10
  %16 = load i64, ptr %10, align 8, !tbaa !11
  %17 = load ptr, ptr %11, align 8, !tbaa !10
  %18 = call ptr @nghttp2_data_provider_wrap_v2(ptr noundef %13, ptr noundef %17)
  %19 = load ptr, ptr %12, align 8, !tbaa !10
  %20 = call i32 @submit_request_shared(ptr noundef %14, ptr noundef %15, i64 noundef %16, ptr noundef %18, ptr noundef %19)
  call void @llvm.lifetime.end.p0(i64 24, ptr %13) #7
  ret i32 %20
}