; Function Attrs: nounwind uwtable
define i32 @nghttp2_submit_request2(ptr noundef %0, ptr noundef readnone captures(none) %1, ptr noundef %2, i64 noundef %3, ptr noundef %4, ptr noundef %5) local_unnamed_addr #0 {
  %7 = alloca %struct.nghttp2_data_provider_wrap, align 8
  call void @llvm.lifetime.start.p0(i64 24, ptr nonnull %7) #8
  %8 = call ptr @nghttp2_data_provider_wrap_v2(ptr noundef nonnull %7, ptr noundef %4) #8
  %9 = getelementptr inbounds nuw i8, ptr %0, i64 2675
  %10 = load i8, ptr %9, align 1, !tbaa !39
  %.not.i = icmp eq i8 %10, 0
  br i1 %.not.i, label %11, label %submit_request_shared.exit

11:                                               ; preds = %6
  %12 = icmp eq ptr %8, null
  br i1 %12, label %17, label %13

13:                                               ; preds = %11
  %14 = getelementptr inbounds nuw i8, ptr %8, i64 16
  %15 = load ptr, ptr %14, align 8, !tbaa !7
  %16 = icmp eq ptr %15, null
  br i1 %16, label %17, label %set_request_flags.exit.i

17:                                               ; preds = %13, %11
  br label %set_request_flags.exit.i

set_request_flags.exit.i:                         ; preds = %17, %13
  %.0.i.i = phi i8 [ 1, %17 ], [ 0, %13 ]
  %18 = call fastcc i32 @submit_headers_shared_nva(ptr noundef nonnull %0, i8 noundef zeroext %.0.i.i, i32 noundef -1, ptr noundef %2, i64 noundef %3, ptr noundef %8, ptr noundef %5)
  br label %submit_request_shared.exit

submit_request_shared.exit:                       ; preds = %6, %set_request_flags.exit.i
  %.0.i = phi i32 [ %18, %set_request_flags.exit.i ], [ -505, %6 ]
  call void @llvm.lifetime.end.p0(i64 24, ptr nonnull %7) #8
  ret i32 %.0.i
}